; Function Attrs: nounwind uwtable
define dso_local void @ExecBitmapHeapReInitializeDSM(ptr noundef readonly captures(none) %0, ptr noundef readnone captures(none) %1) local_unnamed_addr #0 {
  %3 = getelementptr inbounds nuw i8, ptr %0, i64 296
  %4 = load ptr, ptr %3, align 8
  %5 = getelementptr inbounds nuw i8, ptr %0, i64 16
  %6 = load ptr, ptr %5, align 8
  %7 = getelementptr inbounds nuw i8, ptr %6, i64 296
  %8 = load ptr, ptr %7, align 8
  %9 = icmp eq ptr %8, null
  br i1 %9, label %21, label %10

10:                                               ; preds = %2
  %11 = getelementptr inbounds nuw i8, ptr %4, i64 28
  store i32 0, ptr %11, align 4
  %12 = getelementptr inbounds nuw i8, ptr %4, i64 20
  store i32 0, ptr %12, align 4
  %13 = getelementptr inbounds nuw i8, ptr %4, i64 24
  store i32 -1, ptr %13, align 8
  %14 = load i64, ptr %4, align 8
  %.not = icmp eq i64 %14, 0
  br i1 %.not, label %16, label %15

15:                                               ; preds = %10
  tail call void @tbm_free_shared_area(ptr noundef nonnull %8, i64 noundef %14) #7
  br label %16

16:                                               ; preds = %15, %10
  %17 = getelementptr inbounds nuw i8, ptr %4, i64 8
  %18 = load i64, ptr %17, align 8
  %.not16 = icmp eq i64 %18, 0
  br i1 %.not16, label %20, label %19

19:                                               ; preds = %16
  tail call void @tbm_free_shared_area(ptr noundef nonnull %8, i64 noundef %18) #7
  br label %20

20:                                               ; preds = %19, %16
  tail call void @llvm.memset.p0.i64(ptr noundef nonnull align 8 dereferenceable(16) %4, i8 0, i64 16, i1 false)
  br label %21

21:                                               ; preds = %2, %20
  ret void
}